target datalayout = "e-m:e-p270:32:32-p271:32:32-p272:64:64-i64:64-i128:128-f80:128-n8:16:32:64-S128"
target triple = "x86_64-pc-linux-gnu"

%"class.cvc5::internal::Integer" = type { %class.__gmp_expr }
%class.__gmp_expr = type { [1 x %struct.__mpz_struct] }
%struct.__mpz_struct = type { i32, i32, ptr }

; Function Attrs: mustprogress uwtable
define linkonce_odr hidden void @_ZN10__gmp_exprIA1_12__mpz_structS1_EC2ERKS2_(ptr noundef nonnull align 8 dereferenceable(16) %0, ptr noundef nonnull align 8 dereferenceable(16) %1) unnamed_addr #0 comdat align 2 {
  %3 = alloca ptr, align 8
  %4 = alloca ptr, align 8
  store ptr %0, ptr %3, align 8, !tbaa !12
  store ptr %1, ptr %4, align 8, !tbaa !12
  %5 = load ptr, ptr %3, align 8
  %6 = getelementptr inbounds nuw %class.__gmp_expr, ptr %5, i32 0, i32 0
  %7 = getelementptr inbounds [1 x %struct.__mpz_struct], ptr %6, i64 0, i64 0
  %8 = load ptr, ptr %4, align 8, !tbaa !12
  %9 = getelementptr inbounds nuw %class.__gmp_expr, ptr %8, i32 0, i32 0
  %10 = getelementptr inbounds [1 x %struct.__mpz_struct], ptr %9, i64 0, i64 0
  call void @__gmpz_init_set(ptr noundef %7, ptr noundef %10)
  ret void
}

; Function Attrs: mustprogress nounwind uwtable
define linkonce_odr hidden void @_ZN10__gmp_exprIA1_12__mpz_structS1_ED2Ev(ptr noundef nonnull align 8 dereferenceable(16) %0) unnamed_addr #3 comdat align 2 personality ptr @__gxx_personality_v0 {
  %2 = alloca ptr, align 8
  store ptr %0, ptr %2, align 8, !tbaa !12
  %3 = load ptr, ptr %2, align 8
  %4 = getelementptr inbounds nuw %class.__gmp_expr, ptr %3, i32 0, i32 0
  %5 = getelementptr inbounds [1 x %struct.__mpz_struct], ptr %4, i64 0, i64 0
  invoke void @__gmpz_clear(ptr noundef %5)
          to label %6 unwind label %7

6:                                                ; preds = %1
  ret void

7:                                                ; preds = %1
  %8 = landingpad { ptr, i32 }
          catch ptr null
  %9 = extractvalue { ptr, i32 } %8, 0
  call void @__clang_call_terminate(ptr %9) #18
  unreachable
}

; Function Attrs: mustprogress uwtable
define linkonce_odr hidden void @_ZN4cvc58internal7IntegerC2ERK10__gmp_exprIA1_12__mpz_structS4_E(ptr noundef nonnull align 8 dereferenceable(16) %0, ptr noundef nonnull align 8 dereferenceable(16) %1) unnamed_addr #0 comdat align 2 {
  %3 = alloca ptr, align 8
  %4 = alloca ptr, align 8
  store ptr %0, ptr %3, align 8, !tbaa !3
  store ptr %1, ptr %4, align 8, !tbaa !12
  %5 = load ptr, ptr %3, align 8
  %6 = getelementptr inbounds nuw %"class.cvc5::internal::Integer", ptr %5, i32 0, i32 0
  %7 = load ptr, ptr %4, align 8, !tbaa !12
  call void @_ZN10__gmp_exprIA1_12__mpz_structS1_EC2ERKS2_(ptr noundef nonnull align 8 dereferenceable(16) %6, ptr noundef nonnull align 8 dereferenceable(16) %7)
  ret void
}

; Function Attrs: mustprogress nounwind uwtable
define linkonce_odr hidden noundef ptr @_ZNK10__gmp_exprIA1_12__mpz_structS1_E9get_mpz_tEv(ptr noundef nonnull align 8 dereferenceable(16) %0) #3 comdat align 2 {
  %2 = alloca ptr, align 8
  store ptr %0, ptr %2, align 8, !tbaa !12
  %3 = load ptr, ptr %2, align 8
  %4 = getelementptr inbounds nuw %class.__gmp_expr, ptr %3, i32 0, i32 0
  %5 = getelementptr inbounds [1 x %struct.__mpz_struct], ptr %4, i64 0, i64 0
  ret ptr %5
}

; Function Attrs: mustprogress nounwind uwtable
define linkonce_odr hidden noundef ptr @_ZN10__gmp_exprIA1_12__mpz_structS1_E9get_mpz_tEv(ptr noundef nonnull align 8 dereferenceable(16) %0) #3 comdat align 2 {
  %2 = alloca ptr, align 8
  store ptr %0, ptr %2, align 8, !tbaa !12
  %3 = load ptr, ptr %2, align 8
  %4 = getelementptr inbounds nuw %class.__gmp_expr, ptr %3, i32 0, i32 0
  %5 = getelementptr inbounds [1 x %struct.__mpz_struct], ptr %4, i64 0, i64 0
  ret ptr %5
}

; Function Attrs: mustprogress nounwind uwtable
define linkonce_odr hidden void @_ZN10__gmp_exprIA1_12__mpz_structS1_EC2Ev(ptr noundef nonnull align 8 dereferenceable(16) %0) unnamed_addr #3 comdat align 2 {
  %2 = alloca ptr, align 8
  store ptr %0, ptr %2, align 8, !tbaa !12
  %3 = load ptr, ptr %2, align 8
  %4 = getelementptr inbounds nuw %class.__gmp_expr, ptr %3, i32 0, i32 0
  %5 = getelementptr inbounds [1 x %struct.__mpz_struct], ptr %4, i64 0, i64 0
  call void @__gmpz_init(ptr noundef %5) #16
  ret void
}

; Function Attrs: mustprogress uwtable
define hidden void @_ZNK4cvc58internal7Integer3gcdERKS1_(ptr dead_on_unwind noalias writable sret(%"class.cvc5::internal::Integer") align 8 %0, ptr noundef nonnull align 8 dereferenceable(16) %1, ptr noundef nonnull align 8 dereferenceable(16) %2) #0 align 2 personality ptr @__gxx_personality_v0 {
  %4 = alloca ptr, align 8
  %5 = alloca ptr, align 8
  %6 = alloca ptr, align 8
  %7 = alloca %class.__gmp_expr, align 8
  %8 = alloca ptr, align 8
  %9 = alloca i32, align 4
  store ptr %0, ptr %4, align 8
  store ptr %1, ptr %5, align 8, !tbaa !3
  store ptr %2, ptr %6, align 8, !tbaa !3
  %10 = load ptr, ptr %5, align 8
  call void @llvm.lifetime.start.p0(i64 16, ptr %7) #16
  call void @_ZN10__gmp_exprIA1_12__mpz_structS1_EC2Ev(ptr noundef nonnull align 8 dereferenceable(16) %7) #16
  %11 = invoke noundef ptr @_ZN10__gmp_exprIA1_12__mpz_structS1_E9get_mpz_tEv(ptr noundef nonnull align 8 dereferenceable(16) %7)
          to label %12 unwind label %22

12:                                               ; preds = %3
  %13 = getelementptr inbounds nuw %"class.cvc5::internal::Integer", ptr %10, i32 0, i32 0
  %14 = invoke noundef ptr @_ZNK10__gmp_exprIA1_12__mpz_structS1_E9get_mpz_tEv(ptr noundef nonnull align 8 dereferenceable(16) %13)
          to label %15 unwind label %22

15:                                               ; preds = %12
  %16 = load ptr, ptr %6, align 8, !tbaa !3
  %17 = getelementptr inbounds nuw %"class.cvc5::internal::Integer", ptr %16, i32 0, i32 0
  %18 = invoke noundef ptr @_ZNK10__gmp_exprIA1_12__mpz_structS1_E9get_mpz_tEv(ptr noundef nonnull align 8 dereferenceable(16) %17)
          to label %19 unwind label %22

19:                                               ; preds = %15
  invoke void @__gmpz_gcd(ptr noundef %11, ptr noundef %14, ptr noundef %18)
          to label %20 unwind label %22

20:                                               ; preds = %19
  invoke void @_ZN4cvc58internal7IntegerC2ERK10__gmp_exprIA1_12__mpz_structS4_E(ptr noundef nonnull align 8 dereferenceable(16) %0, ptr noundef nonnull align 8 dereferenceable(16) %7)
          to label %21 unwind label %22

21:                                               ; preds = %20
  call void @_ZN10__gmp_exprIA1_12__mpz_structS1_ED2Ev(ptr noundef nonnull align 8 dereferenceable(16) %7) #16
  call void @llvm.lifetime.end.p0(i64 16, ptr %7) #16
  ret void

22:                                               ; preds = %20, %19, %15, %12, %3
  %23 = landingpad { ptr, i32 }
          cleanup
  %24 = extractvalue { ptr, i32 } %23, 0
  store ptr %24, ptr %8, align 8
  %25 = extractvalue { ptr, i32 } %23, 1
  store i32 %25, ptr %9, align 4
  call void @_ZN10__gmp_exprIA1_12__mpz_structS1_ED2Ev(ptr noundef nonnull align 8 dereferenceable(16) %7) #16
  call void @llvm.lifetime.end.p0(i64 16, ptr %7) #16
  br label %26

26:                                               ; preds = %22
  %27 = load ptr, ptr %8, align 8
  %28 = load i32, ptr %9, align 4
  %29 = insertvalue { ptr, i32 } poison, ptr %27, 0
  %30 = insertvalue { ptr, i32 } %29, i32 %28, 1
  resume { ptr, i32 } %30
}